; Function Attrs: mustprogress uwtable
define noundef i64 @_ZN8facebook5velox6memory14MemoryPoolImpl6shrinkEm(ptr noundef nonnull align 8 dereferenceable(480) %this, i64 noundef %targetBytes) unnamed_addr #0 align 2 personality ptr @__gxx_personality_v0 {
entry:
  %parent_ = getelementptr inbounds i8, ptr %this, i64 64
  %0 = load ptr, ptr %parent_, align 8
  %cmp.i.i.not = icmp eq ptr %0, null
  br i1 %cmp.i.i.not, label %if.end, label %if.then

if.then:                                          ; preds = %entry
  %vtable = load ptr, ptr %0, align 8
  %vfn = getelementptr inbounds i8, ptr %vtable, i64 280
  %1 = load ptr, ptr %vfn, align 8
  %call4 = tail call noundef i64 %1(ptr noundef nonnull align 8 dereferenceable(168) %0, i64 noundef %targetBytes)
  br label %return

if.end:                                           ; preds = %entry
  %mutex_ = getelementptr inbounds i8, ptr %this, i64 248
  %call1.i.i.i = tail call noundef i32 @pthread_mutex_lock(ptr noundef nonnull %mutex_) #26
  %tobool.not.i.i = icmp eq i32 %call1.i.i.i, 0
  br i1 %tobool.not.i.i, label %_ZNSt10lock_guardISt5mutexEC2ERS0_.exit, label %if.then.i.i

if.then.i.i:                                      ; preds = %if.end
  tail call void @_ZSt20__throw_system_errori(i32 noundef %call1.i.i.i) #29
  unreachable

_ZNSt10lock_guardISt5mutexEC2ERS0_.exit:          ; preds = %if.end
  %capacity_ = getelementptr inbounds i8, ptr %this, i64 296
  %2 = load i64, ptr %capacity_, align 8
  %cmp.not = icmp eq i64 %2, 9223372036854775807
  br i1 %cmp.not, label %if.then5, label %if.end6

if.then5:                                         ; preds = %_ZNSt10lock_guardISt5mutexEC2ERS0_.exit
  tail call void @llvm.trap()
  unreachable

if.end6:                                          ; preds = %_ZNSt10lock_guardISt5mutexEC2ERS0_.exit
  %reservationBytes_ = getelementptr inbounds i8, ptr %this, i64 304
  %3 = load i64, ptr %reservationBytes_, align 8
  %sub = sub nsw i64 %2, %3
  %cmp10.not = icmp eq i64 %targetBytes, 0
  %.sroa.speculated7 = tail call i64 @llvm.umin.i64(i64 %sub, i64 %targetBytes)
  %freeBytes.0 = select i1 %cmp10.not, i64 %sub, i64 %.sroa.speculated7
  %sub16 = sub i64 %2, %freeBytes.0
  store i64 %sub16, ptr %capacity_, align 8
  %call1.i.i.i3 = tail call noundef i32 @pthread_mutex_unlock(ptr noundef nonnull %mutex_) #26
  br label %return

return:                                           ; preds = %if.end6, %if.then
  %retval.0 = phi i64 [ %call4, %if.then ], [ %freeBytes.0, %if.end6 ]
  ret i64 %retval.0
}